target datalayout = "e-m:e-p270:32:32-p271:32:32-p272:64:64-i64:64-i128:128-f80:128-n8:16:32:64-S128"
target triple = "x86_64-pc-linux-gnu"

%struct._zval_struct = type { %union._zend_value, %union.anon, %union.anon.2 }
%union._zend_value = type { i64 }
%union.anon = type { i32 }
%union.anon.2 = type { i32 }
%struct._zend_execute_data = type { ptr, ptr, ptr, ptr, %struct._zval_struct, ptr, ptr, ptr, ptr }

@.str.6 = private unnamed_addr constant [7 x i8] c"stream\00", align 1

; Function Attrs: nounwind uwtable
define hidden void @zif_stream_set_read_buffer(ptr noundef %0, ptr noundef %1) #0 {
  %3 = alloca ptr, align 8
  %4 = alloca ptr, align 8
  %5 = alloca i1, align 1
  %6 = alloca ptr, align 8
  %7 = alloca ptr, align 8
  %8 = alloca ptr, align 8
  %9 = alloca i8, align 1
  %10 = alloca i32, align 4
  %11 = alloca i8, align 1
  %12 = alloca ptr, align 8
  %13 = alloca ptr, align 8
  %14 = alloca i1, align 1
  %15 = alloca ptr, align 8
  %16 = alloca ptr, align 8
  %17 = alloca i8, align 1
  %18 = alloca ptr, align 8
  %19 = alloca ptr, align 8
  %20 = alloca ptr, align 8
  %21 = alloca i8, align 1
  %22 = alloca i32, align 4
  %23 = alloca ptr, align 8
  %24 = alloca ptr, align 8
  %25 = alloca ptr, align 8
  %26 = alloca i32, align 4
  %27 = alloca i64, align 8
  %28 = alloca i64, align 8
  %29 = alloca ptr, align 8
  %30 = alloca i32, align 4
  %31 = alloca i32, align 4
  %32 = alloca i32, align 4
  %33 = alloca i32, align 4
  %34 = alloca i32, align 4
  %35 = alloca ptr, align 8
  %36 = alloca ptr, align 8
  %37 = alloca i32, align 4
  %38 = alloca ptr, align 8
  %39 = alloca i8, align 1
  %40 = alloca i8, align 1
  %41 = alloca i32, align 4
  %42 = alloca ptr, align 8
  store ptr %0, ptr %23, align 8
  store ptr %1, ptr %24, align 8
  br label %43

43:                                               ; preds = %2
  store i32 0, ptr %30, align 4
  store i32 2, ptr %31, align 4
  store i32 2, ptr %32, align 4
  %44 = load ptr, ptr %23, align 8
  %45 = getelementptr inbounds %struct._zend_execute_data, ptr %44, i32 0, i32 4
  %46 = getelementptr inbounds %struct._zval_struct, ptr %45, i32 0, i32 2
  %47 = load i32, ptr %46, align 4
  store i32 %47, ptr %33, align 4
  store i32 0, ptr %34, align 4
  store ptr null, ptr %36, align 8
  store i32 0, ptr %37, align 4
  store ptr null, ptr %38, align 8
  store i8 0, ptr %39, align 1
  store i8 0, ptr %40, align 1
  store i32 0, ptr %41, align 4
  br label %48

48:                                               ; preds = %43
  %49 = load i32, ptr %33, align 4
  %50 = load i32, ptr %31, align 4
  %51 = icmp ult i32 %49, %50
  %52 = xor i1 %51, true
  %53 = xor i1 %52, true
  %54 = zext i1 %53 to i32
  %55 = sext i32 %54 to i64
  %56 = icmp ne i64 %55, 0
  br i1 %56, label %66, label %57

57:                                               ; preds = %48
  %58 = load i32, ptr %33, align 4
  %59 = load i32, ptr %32, align 4
  %60 = icmp ugt i32 %58, %59
  %61 = xor i1 %60, true
  %62 = xor i1 %61, true
  %63 = zext i1 %62 to i32
  %64 = sext i32 %63 to i64
  %65 = icmp ne i64 %64, 0
  br i1 %65, label %66, label %69

66:                                               ; preds = %57, %48
  %67 = load i32, ptr %31, align 4
  %68 = load i32, ptr %32, align 4
  call void @zend_wrong_parameters_count_error(i32 noundef %67, i32 noundef %68)
  store i32 1, ptr %41, align 4
  br label %253

69:                                               ; preds = %57
  %70 = load ptr, ptr %23, align 8
  %71 = getelementptr inbounds %struct._zval_struct, ptr %70, i64 4
  store ptr %71, ptr %35, align 8
  %72 = load i32, ptr %34, align 4
  %73 = add i32 %72, 1
  store i32 %73, ptr %34, align 4
  %74 = load i32, ptr %34, align 4
  %75 = load i32, ptr %31, align 4
  %76 = icmp ule i32 %74, %75
  br i1 %76, label %82, label %77

77:                                               ; preds = %69
  %78 = load i8, ptr %40, align 1
  %79 = trunc i8 %78 to i1
  %80 = zext i1 %79 to i32
  %81 = icmp eq i32 %80, 1
  br label %82

82:                                               ; preds = %77, %69
  %83 = phi i1 [ true, %69 ], [ %81, %77 ]
  call void @llvm.assume(i1 %83)
  %84 = load i32, ptr %34, align 4
  %85 = load i32, ptr %31, align 4
  %86 = icmp ugt i32 %84, %85
  br i1 %86, label %92, label %87

87:                                               ; preds = %82
  %88 = load i8, ptr %40, align 1
  %89 = trunc i8 %88 to i1
  %90 = zext i1 %89 to i32
  %91 = icmp eq i32 %90, 0
  br label %92

92:                                               ; preds = %87, %82
  %93 = phi i1 [ true, %82 ], [ %91, %87 ]
  call void @llvm.assume(i1 %93)
  %94 = load i8, ptr %40, align 1
  %95 = trunc i8 %94 to i1
  br i1 %95, label %96, label %107

96:                                               ; preds = %92
  %97 = load i32, ptr %34, align 4
  %98 = load i32, ptr %33, align 4
  %99 = icmp ugt i32 %97, %98
  %100 = xor i1 %99, true
  %101 = xor i1 %100, true
  %102 = zext i1 %101 to i32
  %103 = sext i32 %102 to i64
  %104 = icmp ne i64 %103, 0
  br i1 %104, label %105, label %106

105:                                              ; preds = %96
  br label %253

106:                                              ; preds = %96
  br label %107

107:                                              ; preds = %106, %92
  %108 = load ptr, ptr %35, align 8
  %109 = getelementptr inbounds %struct._zval_struct, ptr %108, i32 1
  store ptr %109, ptr %35, align 8
  %110 = load ptr, ptr %35, align 8
  store ptr %110, ptr %36, align 8
  %111 = load ptr, ptr %36, align 8
  store ptr %111, ptr %15, align 8
  store ptr %25, ptr %16, align 8
  store i8 0, ptr %17, align 1
  %112 = load ptr, ptr %15, align 8
  store ptr %112, ptr %12, align 8
  %113 = load ptr, ptr %12, align 8
  %114 = getelementptr inbounds %struct._zval_struct, ptr %113, i32 0, i32 1
  %115 = load i8, ptr %114, align 8
  %116 = zext i8 %115 to i32
  %117 = icmp eq i32 %116, 9
  br i1 %117, label %118, label %121

118:                                              ; preds = %107
  %119 = load ptr, ptr %15, align 8
  %120 = load ptr, ptr %16, align 8
  store ptr %119, ptr %120, align 8
  br label %134

121:                                              ; preds = %107
  %122 = load i8, ptr %17, align 1
  %123 = trunc i8 %122 to i1
  br i1 %123, label %124, label %133

124:                                              ; preds = %121
  %125 = load ptr, ptr %15, align 8
  store ptr %125, ptr %13, align 8
  %126 = load ptr, ptr %13, align 8
  %127 = getelementptr inbounds %struct._zval_struct, ptr %126, i32 0, i32 1
  %128 = load i8, ptr %127, align 8
  %129 = zext i8 %128 to i32
  %130 = icmp eq i32 %129, 1
  br i1 %130, label %131, label %133

131:                                              ; preds = %124
  %132 = load ptr, ptr %16, align 8
  store ptr null, ptr %132, align 8
  br label %134

133:                                              ; preds = %124, %121
  store i1 false, ptr %14, align 1
  br label %135

134:                                              ; preds = %131, %118
  store i1 true, ptr %14, align 1
  br label %135

135:                                              ; preds = %134, %133
  %136 = load i1, ptr %14, align 1
  %137 = xor i1 %136, true
  %138 = xor i1 %137, true
  %139 = xor i1 %138, true
  %140 = zext i1 %139 to i32
  %141 = sext i32 %140 to i64
  %142 = icmp ne i64 %141, 0
  br i1 %142, label %143, label %144

143:                                              ; preds = %135
  store i32 14, ptr %37, align 4
  store i32 9, ptr %41, align 4
  br label %253

144:                                              ; preds = %135
  %145 = load i32, ptr %34, align 4
  %146 = add i32 %145, 1
  store i32 %146, ptr %34, align 4
  %147 = load i32, ptr %34, align 4
  %148 = load i32, ptr %31, align 4
  %149 = icmp ule i32 %147, %148
  br i1 %149, label %155, label %150

150:                                              ; preds = %144
  %151 = load i8, ptr %40, align 1
  %152 = trunc i8 %151 to i1
  %153 = zext i1 %152 to i32
  %154 = icmp eq i32 %153, 1
  br label %155

155:                                              ; preds = %150, %144
  %156 = phi i1 [ true, %144 ], [ %154, %150 ]
  call void @llvm.assume(i1 %156)
  %157 = load i32, ptr %34, align 4
  %158 = load i32, ptr %31, align 4
  %159 = icmp ugt i32 %157, %158
  br i1 %159, label %165, label %160

160:                                              ; preds = %155
  %161 = load i8, ptr %40, align 1
  %162 = trunc i8 %161 to i1
  %163 = zext i1 %162 to i32
  %164 = icmp eq i32 %163, 0
  br label %165

165:                                              ; preds = %160, %155
  %166 = phi i1 [ true, %155 ], [ %164, %160 ]
  call void @llvm.assume(i1 %166)
  %167 = load i8, ptr %40, align 1
  %168 = trunc i8 %167 to i1
  br i1 %168, label %169, label %180

169:                                              ; preds = %165
  %170 = load i32, ptr %34, align 4
  %171 = load i32, ptr %33, align 4
  %172 = icmp ugt i32 %170, %171
  %173 = xor i1 %172, true
  %174 = xor i1 %173, true
  %175 = zext i1 %174 to i32
  %176 = sext i32 %175 to i64
  %177 = icmp ne i64 %176, 0
  br i1 %177, label %178, label %179

178:                                              ; preds = %169
  br label %253

179:                                              ; preds = %169
  br label %180

180:                                              ; preds = %179, %165
  %181 = load ptr, ptr %35, align 8
  %182 = getelementptr inbounds %struct._zval_struct, ptr %181, i32 1
  store ptr %182, ptr %35, align 8
  %183 = load ptr, ptr %35, align 8
  store ptr %183, ptr %36, align 8
  %184 = load ptr, ptr %36, align 8
  %185 = load i32, ptr %34, align 4
  store ptr %184, ptr %18, align 8
  store ptr %27, ptr %19, align 8
  store ptr %39, ptr %20, align 8
  store i8 0, ptr %21, align 1
  store i32 %185, ptr %22, align 4
  %186 = load ptr, ptr %18, align 8
  %187 = load ptr, ptr %19, align 8
  %188 = load ptr, ptr %20, align 8
  %189 = load i8, ptr %21, align 1
  %190 = trunc i8 %189 to i1
  %191 = load i32, ptr %22, align 4
  store ptr %186, ptr %6, align 8
  store ptr %187, ptr %7, align 8
  store ptr %188, ptr %8, align 8
  %192 = zext i1 %190 to i8
  store i8 %192, ptr %9, align 1
  store i32 %191, ptr %10, align 4
  store i8 0, ptr %11, align 1
  %193 = load i8, ptr %9, align 1
  %194 = trunc i8 %193 to i1
  br i1 %194, label %195, label %197

195:                                              ; preds = %180
  %196 = load ptr, ptr %8, align 8
  store i8 0, ptr %196, align 1
  br label %197

197:                                              ; preds = %195, %180
  %198 = load ptr, ptr %6, align 8
  store ptr %198, ptr %3, align 8
  %199 = load ptr, ptr %3, align 8
  %200 = getelementptr inbounds %struct._zval_struct, ptr %199, i32 0, i32 1
  %201 = load i8, ptr %200, align 8
  %202 = zext i8 %201 to i32
  %203 = icmp eq i32 %202, 4
  br i1 %203, label %204, label %208

204:                                              ; preds = %197
  %205 = load ptr, ptr %6, align 8
  %206 = load i64, ptr %205, align 8
  %207 = load ptr, ptr %7, align 8
  store i64 %206, ptr %207, align 8
  br label %234

208:                                              ; preds = %197
  %209 = load i8, ptr %9, align 1
  %210 = trunc i8 %209 to i1
  br i1 %210, label %211, label %221

211:                                              ; preds = %208
  %212 = load ptr, ptr %6, align 8
  store ptr %212, ptr %4, align 8
  %213 = load ptr, ptr %4, align 8
  %214 = getelementptr inbounds %struct._zval_struct, ptr %213, i32 0, i32 1
  %215 = load i8, ptr %214, align 8
  %216 = zext i8 %215 to i32
  %217 = icmp eq i32 %216, 1
  br i1 %217, label %218, label %221

218:                                              ; preds = %211
  %219 = load ptr, ptr %8, align 8
  store i8 1, ptr %219, align 1
  %220 = load ptr, ptr %7, align 8
  store i64 0, ptr %220, align 8
  br label %234

221:                                              ; preds = %211, %208
  %222 = load i8, ptr %11, align 1
  %223 = trunc i8 %222 to i1
  br i1 %223, label %224, label %229

224:                                              ; preds = %221
  %225 = load ptr, ptr %6, align 8
  %226 = load ptr, ptr %7, align 8
  %227 = load i32, ptr %10, align 4
  %228 = call zeroext i1 @zend_flf_parse_arg_long_slow(ptr noundef %225, ptr noundef %226, i32 noundef %227) #9
  store i1 %228, ptr %5, align 1
  br label %235

229:                                              ; preds = %221
  %230 = load ptr, ptr %6, align 8
  %231 = load ptr, ptr %7, align 8
  %232 = load i32, ptr %10, align 4
  %233 = call zeroext i1 @zend_parse_arg_long_slow(ptr noundef %230, ptr noundef %231, i32 noundef %232) #9
  store i1 %233, ptr %5, align 1
  br label %235

234:                                              ; preds = %218, %204
  store i1 true, ptr %5, align 1
  br label %235

235:                                              ; preds = %234, %229, %224
  %236 = load i1, ptr %5, align 1
  %237 = xor i1 %236, true
  %238 = xor i1 %237, true
  %239 = xor i1 %238, true
  %240 = zext i1 %239 to i32
  %241 = sext i32 %240 to i64
  %242 = icmp ne i64 %241, 0
  br i1 %242, label %243, label %244

243:                                              ; preds = %235
  store i32 0, ptr %37, align 4
  store i32 9, ptr %41, align 4
  br label %253

244:                                              ; preds = %235
  %245 = load i32, ptr %34, align 4
  %246 = load i32, ptr %32, align 4
  %247 = icmp eq i32 %245, %246
  br i1 %247, label %251, label %248

248:                                              ; preds = %244
  %249 = load i32, ptr %32, align 4
  %250 = icmp eq i32 %249, -1
  br label %251

251:                                              ; preds = %248, %244
  %252 = phi i1 [ true, %244 ], [ %250, %248 ]
  call void @llvm.assume(i1 %252)
  br label %253

253:                                              ; preds = %251, %243, %178, %143, %105, %66
  %254 = load i32, ptr %41, align 4
  %255 = icmp ne i32 %254, 0
  %256 = xor i1 %255, true
  %257 = xor i1 %256, true
  %258 = zext i1 %257 to i32
  %259 = sext i32 %258 to i64
  %260 = icmp ne i64 %259, 0
  br i1 %260, label %261, label %267

261:                                              ; preds = %253
  %262 = load i32, ptr %41, align 4
  %263 = load i32, ptr %34, align 4
  %264 = load ptr, ptr %38, align 8
  %265 = load i32, ptr %37, align 4
  %266 = load ptr, ptr %36, align 8
  call void @zend_wrong_parameter_error(i32 noundef %262, i32 noundef %263, ptr noundef %264, i32 noundef %265, ptr noundef %266)
  br label %300

267:                                              ; preds = %253
  br label %268

268:                                              ; preds = %267
  br label %269

269:                                              ; preds = %268
  %270 = load ptr, ptr %25, align 8
  %271 = call i32 @php_file_le_stream()
  %272 = call i32 @php_file_le_pstream()
  %273 = call ptr @zend_fetch_resource2_ex(ptr noundef %270, ptr noundef @.str.6, i32 noundef %271, i32 noundef %272)
  store ptr %273, ptr %29, align 8
  %274 = icmp eq ptr %273, null
  br i1 %274, label %275, label %276

275:                                              ; preds = %269
  br label %300

276:                                              ; preds = %269
  br label %277

277:                                              ; preds = %276
  %278 = load i64, ptr %27, align 8
  store i64 %278, ptr %28, align 8
  %279 = load i64, ptr %28, align 8
  %280 = icmp eq i64 %279, 0
  br i1 %280, label %281, label %284

281:                                              ; preds = %277
  %282 = load ptr, ptr %29, align 8
  %283 = call i32 @_php_stream_set_option(ptr noundef %282, i32 noundef 2, i32 noundef 0, ptr noundef null)
  store i32 %283, ptr %26, align 4
  br label %287

284:                                              ; preds = %277
  %285 = load ptr, ptr %29, align 8
  %286 = call i32 @_php_stream_set_option(ptr noundef %285, i32 noundef 2, i32 noundef 2, ptr noundef %28)
  store i32 %286, ptr %26, align 4
  br label %287

287:                                              ; preds = %284, %281
  br label %288

288:                                              ; preds = %287
  br label %289

289:                                              ; preds = %288
  %290 = load ptr, ptr %24, align 8
  store ptr %290, ptr %42, align 8
  %291 = load i32, ptr %26, align 4
  %292 = icmp eq i32 %291, 0
  %293 = select i1 %292, i32 0, i32 -1
  %294 = sext i32 %293 to i64
  %295 = load ptr, ptr %42, align 8
  %296 = getelementptr inbounds %struct._zval_struct, ptr %295, i32 0, i32 0
  store i64 %294, ptr %296, align 8
  %297 = load ptr, ptr %42, align 8
  %298 = getelementptr inbounds %struct._zval_struct, ptr %297, i32 0, i32 1
  store i32 4, ptr %298, align 8
  br label %299

299:                                              ; preds = %289
  br label %300

300:                                              ; preds = %299, %275, %261
  ret void
}